target datalayout = "e-m:e-p270:32:32-p271:32:32-p272:64:64-i64:64-i128:128-f80:128-n8:16:32:64-S128"
target triple = "x86_64-pc-linux-gnu"

%struct.AVFilterContext = type { ptr, ptr, ptr, ptr, ptr, i32, ptr, ptr, i32, ptr, ptr, i32, i32, ptr, ptr, ptr, ptr, i32, ptr, i32, i32 }
%struct.DynamicAudioNormalizerContext = type { ptr, %struct.FFBufQueue, i32, i32, i32, i32, i32, i32, double, ptr, double, double, double, double, double, ptr, ptr, ptr, ptr, i32, i32, i32, ptr, %struct.AVChannelLayout, i64, ptr, ptr, ptr, ptr, ptr, ptr, ptr, [6 x double] }
%struct.FFBufQueue = type { [302 x ptr], i16, i16 }
%struct.AVChannelLayout = type { i32, i32, %union.anon.1, ptr }
%union.anon.1 = type { i64 }

@.str.50 = private unnamed_addr constant [54 x i8] c"filter size %d is invalid. Changing to an odd value.\0A\00", align 1

; Function Attrs: cold nounwind optsize uwtable
define internal i32 @init(ptr noundef %0) #0 {
  %2 = alloca ptr, align 8
  %3 = alloca ptr, align 8
  store ptr %0, ptr %2, align 8, !tbaa !4
  call void @llvm.lifetime.start.p0(i64 8, ptr %3) #11
  %4 = load ptr, ptr %2, align 8, !tbaa !4
  %5 = getelementptr inbounds nuw %struct.AVFilterContext, ptr %4, i32 0, i32 9
  %6 = load ptr, ptr %5, align 8, !tbaa !9
  store ptr %6, ptr %3, align 8, !tbaa !22
  %7 = load ptr, ptr %3, align 8, !tbaa !22
  %8 = getelementptr inbounds nuw %struct.DynamicAudioNormalizerContext, ptr %7, i32 0, i32 4
  %9 = load i32, ptr %8, align 8, !tbaa !24
  %10 = and i32 %9, 1
  %11 = icmp ne i32 %10, 0
  br i1 %11, label %21, label %12

12:                                               ; preds = %1
  %13 = load ptr, ptr %2, align 8, !tbaa !4
  %14 = load ptr, ptr %3, align 8, !tbaa !22
  %15 = getelementptr inbounds nuw %struct.DynamicAudioNormalizerContext, ptr %14, i32 0, i32 4
  %16 = load i32, ptr %15, align 8, !tbaa !24
  call void (ptr, i32, ptr, ...) @av_log(ptr noundef %13, i32 noundef 24, ptr noundef @.str.50, i32 noundef %16)
  %17 = load ptr, ptr %3, align 8, !tbaa !22
  %18 = getelementptr inbounds nuw %struct.DynamicAudioNormalizerContext, ptr %17, i32 0, i32 4
  %19 = load i32, ptr %18, align 8, !tbaa !24
  %20 = or i32 %19, 1
  store i32 %20, ptr %18, align 8, !tbaa !24
  br label %21

21:                                               ; preds = %12, %1
  call void @llvm.lifetime.end.p0(i64 8, ptr %3) #11
  ret i32 0
}