; Function Attrs: cold nounwind optsize uwtable
define internal noundef i32 @init(ptr noundef %0) #0 {
  %2 = getelementptr inbounds nuw i8, ptr %0, i64 72
  %3 = load ptr, ptr %2, align 8, !tbaa !4
  %4 = getelementptr inbounds nuw i8, ptr %3, i64 2440
  %5 = load i32, ptr %4, align 8, !tbaa !20
  %6 = and i32 %5, 1
  %.not = icmp eq i32 %6, 0
  br i1 %.not, label %7, label %10

7:                                                ; preds = %1
  tail call void (ptr, i32, ptr, ...) @av_log(ptr noundef nonnull %0, i32 noundef 24, ptr noundef nonnull @.str.50, i32 noundef %5) #15
  %8 = load i32, ptr %4, align 8, !tbaa !20
  %9 = or i32 %8, 1
  store i32 %9, ptr %4, align 8, !tbaa !20
  br label %10

10:                                               ; preds = %7, %1
  ret i32 0
}